target datalayout = "e-m:e-p270:32:32-p271:32:32-p272:64:64-i64:64-i128:128-f80:128-n8:16:32:64-S128"
target triple = "x86_64-pc-linux-gnu"

%struct.decNumber = type { i32, i32, i8, [1 x i16] }
%struct.decContext = type { i32, i32, i32, i32, i32, i32, i8 }

; Function Attrs: nounwind uwtable
define dso_local ptr @decNumberZero(ptr noundef %0) #0 {
  %2 = alloca ptr, align 8
  store ptr %0, ptr %2, align 8, !tbaa !4
  %3 = load ptr, ptr %2, align 8, !tbaa !4
  %4 = getelementptr inbounds nuw %struct.decNumber, ptr %3, i32 0, i32 2
  store i8 0, ptr %4, align 4, !tbaa !10
  %5 = load ptr, ptr %2, align 8, !tbaa !4
  %6 = getelementptr inbounds nuw %struct.decNumber, ptr %5, i32 0, i32 1
  store i32 0, ptr %6, align 4, !tbaa !19
  %7 = load ptr, ptr %2, align 8, !tbaa !4
  %8 = getelementptr inbounds nuw %struct.decNumber, ptr %7, i32 0, i32 0
  store i32 1, ptr %8, align 4, !tbaa !18
  %9 = load ptr, ptr %2, align 8, !tbaa !4
  %10 = getelementptr inbounds nuw %struct.decNumber, ptr %9, i32 0, i32 3
  %11 = getelementptr inbounds [1 x i16], ptr %10, i64 0, i64 0
  store i16 0, ptr %11, align 2, !tbaa !14
  %12 = load ptr, ptr %2, align 8, !tbaa !4
  ret ptr %12
}

; Function Attrs: nounwind uwtable
define internal void @decStatus(ptr noundef %0, i32 noundef %1, ptr noundef %2) #0 {
  %4 = alloca ptr, align 8
  %5 = alloca i32, align 4
  %6 = alloca ptr, align 8
  store ptr %0, ptr %4, align 8, !tbaa !4
  store i32 %1, ptr %5, align 4, !tbaa !8
  store ptr %2, ptr %6, align 8, !tbaa !4
  %7 = load i32, ptr %5, align 4, !tbaa !8
  %8 = and i32 %7, 221
  %9 = icmp ne i32 %8, 0
  br i1 %9, label %10, label %23

10:                                               ; preds = %3
  %11 = load i32, ptr %5, align 4, !tbaa !8
  %12 = and i32 %11, 1073741824
  %13 = icmp ne i32 %12, 0
  br i1 %13, label %14, label %17

14:                                               ; preds = %10
  %15 = load i32, ptr %5, align 4, !tbaa !8
  %16 = and i32 %15, -1073741825
  store i32 %16, ptr %5, align 4, !tbaa !8
  br label %22

17:                                               ; preds = %10
  %18 = load ptr, ptr %4, align 8, !tbaa !4
  %19 = call ptr @decNumberZero(ptr noundef %18)
  %20 = load ptr, ptr %4, align 8, !tbaa !4
  %21 = getelementptr inbounds nuw %struct.decNumber, ptr %20, i32 0, i32 2
  store i8 32, ptr %21, align 4, !tbaa !10
  br label %22

22:                                               ; preds = %17, %14
  br label %23

23:                                               ; preds = %22, %3
  %24 = load ptr, ptr %6, align 8, !tbaa !4
  %25 = load i32, ptr %5, align 4, !tbaa !8
  %26 = call ptr @decContextSetStatus(ptr noundef %24, i32 noundef %25)
  ret void
}

; Function Attrs: nounwind uwtable
define internal i32 @decCheckMath(ptr noundef %0, ptr noundef %1, ptr noundef %2) #0 {
  %4 = alloca ptr, align 8
  %5 = alloca ptr, align 8
  %6 = alloca ptr, align 8
  %7 = alloca i32, align 4
  store ptr %0, ptr %4, align 8, !tbaa !4
  store ptr %1, ptr %5, align 8, !tbaa !4
  store ptr %2, ptr %6, align 8, !tbaa !40
  call void @llvm.lifetime.start.p0(i64 4, ptr %7) #7
  %8 = load ptr, ptr %6, align 8, !tbaa !40
  %9 = load i32, ptr %8, align 4, !tbaa !8
  store i32 %9, ptr %7, align 4, !tbaa !8
  %10 = load ptr, ptr %5, align 8, !tbaa !4
  %11 = getelementptr inbounds nuw %struct.decContext, ptr %10, i32 0, i32 0
  %12 = load i32, ptr %11, align 4, !tbaa !33
  %13 = icmp sgt i32 %12, 999999
  br i1 %13, label %25, label %14

14:                                               ; preds = %3
  %15 = load ptr, ptr %5, align 8, !tbaa !4
  %16 = getelementptr inbounds nuw %struct.decContext, ptr %15, i32 0, i32 1
  %17 = load i32, ptr %16, align 4, !tbaa !39
  %18 = icmp sgt i32 %17, 999999
  br i1 %18, label %25, label %19

19:                                               ; preds = %14
  %20 = load ptr, ptr %5, align 8, !tbaa !4
  %21 = getelementptr inbounds nuw %struct.decContext, ptr %20, i32 0, i32 2
  %22 = load i32, ptr %21, align 4, !tbaa !38
  %23 = sub nsw i32 0, %22
  %24 = icmp sgt i32 %23, 999999
  br i1 %24, label %25, label %29

25:                                               ; preds = %19, %14, %3
  %26 = load ptr, ptr %6, align 8, !tbaa !40
  %27 = load i32, ptr %26, align 4, !tbaa !8
  %28 = or i32 %27, 64
  store i32 %28, ptr %26, align 4, !tbaa !8
  br label %76

29:                                               ; preds = %19
  %30 = load ptr, ptr %4, align 8, !tbaa !4
  %31 = getelementptr inbounds nuw %struct.decNumber, ptr %30, i32 0, i32 0
  %32 = load i32, ptr %31, align 4, !tbaa !18
  %33 = icmp sgt i32 %32, 999999
  br i1 %33, label %52, label %34

34:                                               ; preds = %29
  %35 = load ptr, ptr %4, align 8, !tbaa !4
  %36 = getelementptr inbounds nuw %struct.decNumber, ptr %35, i32 0, i32 1
  %37 = load i32, ptr %36, align 4, !tbaa !19
  %38 = load ptr, ptr %4, align 8, !tbaa !4
  %39 = getelementptr inbounds nuw %struct.decNumber, ptr %38, i32 0, i32 0
  %40 = load i32, ptr %39, align 4, !tbaa !18
  %41 = add nsw i32 %37, %40
  %42 = icmp sgt i32 %41, 1000000
  br i1 %42, label %52, label %43

43:                                               ; preds = %34
  %44 = load ptr, ptr %4, align 8, !tbaa !4
  %45 = getelementptr inbounds nuw %struct.decNumber, ptr %44, i32 0, i32 1
  %46 = load i32, ptr %45, align 4, !tbaa !19
  %47 = load ptr, ptr %4, align 8, !tbaa !4
  %48 = getelementptr inbounds nuw %struct.decNumber, ptr %47, i32 0, i32 0
  %49 = load i32, ptr %48, align 4, !tbaa !18
  %50 = add nsw i32 %46, %49
  %51 = icmp slt i32 %50, -1999996
  br i1 %51, label %52, label %75

52:                                               ; preds = %43, %34, %29
  %53 = load ptr, ptr %4, align 8, !tbaa !4
  %54 = getelementptr inbounds nuw %struct.decNumber, ptr %53, i32 0, i32 3
  %55 = getelementptr inbounds [1 x i16], ptr %54, i64 0, i64 0
  %56 = load i16, ptr %55, align 2, !tbaa !14
  %57 = zext i16 %56 to i32
  %58 = icmp eq i32 %57, 0
  br i1 %58, label %59, label %71

59:                                               ; preds = %52
  %60 = load ptr, ptr %4, align 8, !tbaa !4
  %61 = getelementptr inbounds nuw %struct.decNumber, ptr %60, i32 0, i32 0
  %62 = load i32, ptr %61, align 4, !tbaa !18
  %63 = icmp eq i32 %62, 1
  br i1 %63, label %64, label %71

64:                                               ; preds = %59
  %65 = load ptr, ptr %4, align 8, !tbaa !4
  %66 = getelementptr inbounds nuw %struct.decNumber, ptr %65, i32 0, i32 2
  %67 = load i8, ptr %66, align 4, !tbaa !10
  %68 = zext i8 %67 to i32
  %69 = and i32 %68, 112
  %70 = icmp eq i32 %69, 0
  br i1 %70, label %75, label %71

71:                                               ; preds = %64, %59, %52
  %72 = load ptr, ptr %6, align 8, !tbaa !40
  %73 = load i32, ptr %72, align 4, !tbaa !8
  %74 = or i32 %73, 128
  store i32 %74, ptr %72, align 4, !tbaa !8
  br label %75

75:                                               ; preds = %71, %64, %43
  br label %76

76:                                               ; preds = %75, %25
  %77 = load ptr, ptr %6, align 8, !tbaa !40
  %78 = load i32, ptr %77, align 4, !tbaa !8
  %79 = load i32, ptr %7, align 4, !tbaa !8
  %80 = icmp ne i32 %78, %79
  %81 = zext i1 %80 to i32
  call void @llvm.lifetime.end.p0(i64 4, ptr %7) #7
  ret i32 %81
}

; Function Attrs: nounwind uwtable
define dso_local ptr @decNumberExp(ptr noundef %0, ptr noundef %1, ptr noundef %2) #0 {
  %4 = alloca ptr, align 8
  %5 = alloca ptr, align 8
  %6 = alloca ptr, align 8
  %7 = alloca i32, align 4
  store ptr %0, ptr %4, align 8, !tbaa !4
  store ptr %1, ptr %5, align 8, !tbaa !4
  store ptr %2, ptr %6, align 8, !tbaa !4
  call void @llvm.lifetime.start.p0(i64 4, ptr %7) #7
  store i32 0, ptr %7, align 4, !tbaa !8
  %8 = load ptr, ptr %5, align 8, !tbaa !4
  %9 = load ptr, ptr %6, align 8, !tbaa !4
  %10 = call i32 @decCheckMath(ptr noundef %8, ptr noundef %9, ptr noundef %7)
  %11 = icmp ne i32 %10, 0
  br i1 %11, label %20, label %12

12:                                               ; preds = %3
  br label %13

13:                                               ; preds = %12
  %14 = load ptr, ptr %4, align 8, !tbaa !4
  %15 = load ptr, ptr %5, align 8, !tbaa !4
  %16 = load ptr, ptr %6, align 8, !tbaa !4
  %17 = call ptr @decExpOp(ptr noundef %14, ptr noundef %15, ptr noundef %16, ptr noundef %7)
  br label %18

18:                                               ; preds = %13
  br label %19

19:                                               ; preds = %18
  br label %20

20:                                               ; preds = %19, %3
  %21 = load i32, ptr %7, align 4, !tbaa !8
  %22 = icmp ne i32 %21, 0
  br i1 %22, label %23, label %27

23:                                               ; preds = %20
  %24 = load ptr, ptr %4, align 8, !tbaa !4
  %25 = load i32, ptr %7, align 4, !tbaa !8
  %26 = load ptr, ptr %6, align 8, !tbaa !4
  call void @decStatus(ptr noundef %24, i32 noundef %25, ptr noundef %26)
  br label %27

27:                                               ; preds = %23, %20
  %28 = load ptr, ptr %4, align 8, !tbaa !4
  call void @llvm.lifetime.end.p0(i64 4, ptr %7) #7
  ret ptr %28
}